#include <math.h>
#include <stdio.h>
#include <stdlib.h>
#include <string.h>

int main()
{
    int a[200],i,n,m;
	scanf("%d %d",&n,&m);
	for(i=0;i<n;i++)
	{
		scanf("%d",&a[i]);
	    if(i<n-m)
			a[i+m+n]=a[i];
		if(i>=n-m)
			a[i+m]=a[i];
	}
	for(i=0;i<n-1;i++)
	     printf("%d ",a[i+n]);
	printf("%d",a[2*n-1]);
return 0;
}
	