; ModuleID = 'source-C-CXX/51/1423.c'
source_filename = "source-C-CXX/51/1423.c"
target datalayout = "e-m:e-p270:32:32-p271:32:32-p272:64:64-i64:64-f80:128-n8:16:32:64-S128"
target triple = "x86_64-pc-linux-gnu"

@.str = private unnamed_addr constant [6 x i8] c"%d %d\00", align 1
@.str.1 = private unnamed_addr constant [3 x i8] c"%d\00", align 1
@.str.2 = private unnamed_addr constant [4 x i8] c"%d \00", align 1

; Function Attrs: nofree nounwind sspstrong uwtable
define dso_local i32 @main() local_unnamed_addr #0 {
  %1 = alloca [200 x i32], align 16
  %2 = alloca i32, align 4
  %3 = alloca i32, align 4
  %4 = bitcast [200 x i32]* %1 to i8*
  call void @llvm.lifetime.start.p0i8(i64 800, i8* nonnull %4) #3
  %5 = bitcast i32* %2 to i8*
  call void @llvm.lifetime.start.p0i8(i64 4, i8* nonnull %5) #3
  %6 = bitcast i32* %3 to i8*
  call void @llvm.lifetime.start.p0i8(i64 4, i8* nonnull %6) #3
  %7 = call i32 (i8*, ...) @__isoc99_scanf(i8* getelementptr inbounds ([6 x i8], [6 x i8]* @.str, i64 0, i64 0), i32* nonnull %2, i32* nonnull %3)
  %8 = load i32, i32* %2, align 4, !tbaa !5
  %9 = icmp sgt i32 %8, 0
  br i1 %9, label %12, label %43

10:                                               ; preds = %12
  %11 = icmp sgt i32 %16, 1
  br i1 %11, label %31, label %43

12:                                               ; preds = %0, %12
  %13 = phi i64 [ %28, %12 ], [ 0, %0 ]
  %14 = getelementptr inbounds [200 x i32], [200 x i32]* %1, i64 0, i64 %13
  %15 = call i32 (i8*, ...) @__isoc99_scanf(i8* getelementptr inbounds ([3 x i8], [3 x i8]* @.str.1, i64 0, i64 0), i32* nonnull %14)
  %16 = load i32, i32* %2, align 4, !tbaa !5
  %17 = load i32, i32* %3, align 4, !tbaa !5
  %18 = sub nsw i32 %16, %17
  %19 = sext i32 %18 to i64
  %20 = icmp slt i64 %13, %19
  %21 = load i32, i32* %14, align 4, !tbaa !5
  %22 = trunc i64 %13 to i32
  %23 = add nsw i32 %17, %22
  %24 = select i1 %20, i32 %16, i32 0
  %25 = add nsw i32 %23, %24
  %26 = sext i32 %25 to i64
  %27 = getelementptr inbounds [200 x i32], [200 x i32]* %1, i64 0, i64 %26
  store i32 %21, i32* %27, align 4, !tbaa !5
  %28 = add nuw nsw i64 %13, 1
  %29 = sext i32 %16 to i64
  %30 = icmp slt i64 %28, %29
  br i1 %30, label %12, label %10, !llvm.loop !9

31:                                               ; preds = %10, %31
  %32 = phi i32 [ %40, %31 ], [ %16, %10 ]
  %33 = phi i32 [ %39, %31 ], [ 0, %10 ]
  %34 = add nsw i32 %32, %33
  %35 = sext i32 %34 to i64
  %36 = getelementptr inbounds [200 x i32], [200 x i32]* %1, i64 0, i64 %35
  %37 = load i32, i32* %36, align 4, !tbaa !5
  %38 = call i32 (i8*, ...) @printf(i8* nonnull dereferenceable(1) getelementptr inbounds ([4 x i8], [4 x i8]* @.str.2, i64 0, i64 0), i32 %37)
  %39 = add nuw nsw i32 %33, 1
  %40 = load i32, i32* %2, align 4, !tbaa !5
  %41 = add nsw i32 %40, -1
  %42 = icmp slt i32 %39, %41
  br i1 %42, label %31, label %43, !llvm.loop !11

43:                                               ; preds = %31, %0, %10
  %44 = phi i32 [ %16, %10 ], [ %8, %0 ], [ %40, %31 ]
  %45 = shl nsw i32 %44, 1
  %46 = add nsw i32 %45, -1
  %47 = sext i32 %46 to i64
  %48 = getelementptr inbounds [200 x i32], [200 x i32]* %1, i64 0, i64 %47
  %49 = load i32, i32* %48, align 4, !tbaa !5
  %50 = call i32 (i8*, ...) @printf(i8* nonnull dereferenceable(1) getelementptr inbounds ([3 x i8], [3 x i8]* @.str.1, i64 0, i64 0), i32 %49)
  call void @llvm.lifetime.end.p0i8(i64 4, i8* nonnull %6) #3
  call void @llvm.lifetime.end.p0i8(i64 4, i8* nonnull %5) #3
  call void @llvm.lifetime.end.p0i8(i64 800, i8* nonnull %4) #3
  ret i32 0
}

; Function Attrs: argmemonly mustprogress nofree nosync nounwind willreturn
declare void @llvm.lifetime.start.p0i8(i64 immarg, i8* nocapture) #1

; Function Attrs: nofree nounwind
declare noundef i32 @__isoc99_scanf(i8* nocapture noundef readonly, ...) local_unnamed_addr #2

; Function Attrs: nofree nounwind
declare noundef i32 @printf(i8* nocapture noundef readonly, ...) local_unnamed_addr #2

; Function Attrs: argmemonly mustprogress nofree nosync nounwind willreturn
declare void @llvm.lifetime.end.p0i8(i64 immarg, i8* nocapture) #1


!llvm.module.flags = !{!0, !1, !2, !3}
!llvm.ident = !{!4}

!0 = !{i32 1, !"wchar_size", i32 4}
!1 = !{i32 7, !"PIC Level", i32 2}
!2 = !{i32 7, !"PIE Level", i32 2}
!3 = !{i32 7, !"uwtable", i32 1}
!4 = !{!"clang version 13.0.0"}
!5 = !{!6, !6, i64 0}
!6 = !{!"int", !7, i64 0}
!7 = !{!"omnipotent char", !8, i64 0}
!8 = !{!"Simple C/C++ TBAA"}
!9 = distinct !{!9, !10}
!10 = !{!"llvm.loop.mustprogress"}
!11 = distinct !{!11, !10}
